target datalayout = "e-m:e-p270:32:32-p271:32:32-p272:64:64-i64:64-i128:128-f80:128-n8:16:32:64-S128"
target triple = "x86_64-pc-linux-gnu"

@.str.394 = private unnamed_addr constant [5 x i8] c"O|y#\00", align 1

; Function Attrs: nounwind uwtable
define internal ptr @unicode_comparewithasciistring(ptr noundef %0, ptr noundef %1) #0 {
  %3 = alloca ptr, align 8
  %4 = alloca ptr, align 8
  %5 = alloca ptr, align 8
  %6 = alloca ptr, align 8
  %7 = alloca ptr, align 8
  %8 = alloca i64, align 8
  %9 = alloca i32, align 4
  %10 = alloca i32, align 4
  store ptr %0, ptr %4, align 8, !tbaa !3
  store ptr %1, ptr %5, align 8, !tbaa !3
  call void @llvm.lifetime.start.p0(i64 8, ptr %6) #7
  call void @llvm.lifetime.start.p0(i64 8, ptr %7) #7
  store ptr null, ptr %7, align 8, !tbaa !8
  call void @llvm.lifetime.start.p0(i64 8, ptr %8) #7
  call void @llvm.lifetime.start.p0(i64 4, ptr %9) #7
  %11 = load ptr, ptr %5, align 8, !tbaa !3
  %12 = call i32 (ptr, ptr, ...) @PyArg_ParseTuple(ptr noundef %11, ptr noundef @.str.394, ptr noundef %6, ptr noundef %7, ptr noundef %8)
  %13 = icmp ne i32 %12, 0
  br i1 %13, label %15, label %14

14:                                               ; preds = %2
  store ptr null, ptr %3, align 8
  store i32 1, ptr %10, align 4
  br label %37

15:                                               ; preds = %2
  br label %16

16:                                               ; preds = %15
  %17 = load ptr, ptr %6, align 8, !tbaa !3
  %18 = call ptr @Py_GetConstantBorrowed(i32 noundef 0)
  %19 = icmp eq ptr %17, %18
  br i1 %19, label %20, label %21

20:                                               ; preds = %16
  store ptr null, ptr %6, align 8, !tbaa !3
  br label %21

21:                                               ; preds = %20, %16
  br label %22

22:                                               ; preds = %21
  br label %23

23:                                               ; preds = %22
  %24 = load ptr, ptr %6, align 8, !tbaa !3
  %25 = load ptr, ptr %7, align 8, !tbaa !8
  %26 = call i32 @PyUnicode_CompareWithASCIIString(ptr noundef %24, ptr noundef %25)
  store i32 %26, ptr %9, align 4, !tbaa !10
  %27 = load i32, ptr %9, align 4, !tbaa !10
  %28 = icmp eq i32 %27, -1
  br i1 %28, label %29, label %33

29:                                               ; preds = %23
  %30 = call ptr @PyErr_Occurred()
  %31 = icmp ne ptr %30, null
  br i1 %31, label %32, label %33

32:                                               ; preds = %29
  store ptr null, ptr %3, align 8
  store i32 1, ptr %10, align 4
  br label %37

33:                                               ; preds = %29, %23
  %34 = load i32, ptr %9, align 4, !tbaa !10
  %35 = sext i32 %34 to i64
  %36 = call ptr @PyLong_FromLong(i64 noundef %35)
  store ptr %36, ptr %3, align 8
  store i32 1, ptr %10, align 4
  br label %37

37:                                               ; preds = %33, %32, %14
  call void @llvm.lifetime.end.p0(i64 4, ptr %9) #7
  call void @llvm.lifetime.end.p0(i64 8, ptr %8) #7
  call void @llvm.lifetime.end.p0(i64 8, ptr %7) #7
  call void @llvm.lifetime.end.p0(i64 8, ptr %6) #7
  %38 = load ptr, ptr %3, align 8
  ret ptr %38
}