; Function Attrs: nounwind uwtable
define internal ptr @unicode_comparewithasciistring(ptr readnone captures(none) %0, ptr noundef %1) #0 {
  %3 = alloca ptr, align 8
  %4 = alloca ptr, align 8
  %5 = alloca i64, align 8
  call void @llvm.lifetime.start.p0(i64 8, ptr nonnull %3) #4
  call void @llvm.lifetime.start.p0(i64 8, ptr nonnull %4) #4
  store ptr null, ptr %4, align 8, !tbaa !3
  call void @llvm.lifetime.start.p0(i64 8, ptr nonnull %5) #4
  %6 = call i32 (ptr, ptr, ...) @PyArg_ParseTuple(ptr noundef %1, ptr noundef nonnull @.str.394, ptr noundef nonnull %3, ptr noundef nonnull %4, ptr noundef nonnull %5) #4
  %.not = icmp eq i32 %6, 0
  br i1 %.not, label %22, label %7

7:                                                ; preds = %2
  %8 = load ptr, ptr %3, align 8, !tbaa !8
  %9 = call ptr @Py_GetConstantBorrowed(i32 noundef 0) #4
  %10 = icmp eq ptr %8, %9
  br i1 %10, label %11, label %._crit_edge

._crit_edge:                                      ; preds = %7
  %.pre = load ptr, ptr %3, align 8, !tbaa !8
  br label %12

11:                                               ; preds = %7
  store ptr null, ptr %3, align 8, !tbaa !8
  br label %12

12:                                               ; preds = %._crit_edge, %11
  %13 = phi ptr [ %.pre, %._crit_edge ], [ null, %11 ]
  %14 = load ptr, ptr %4, align 8, !tbaa !3
  %15 = call i32 @PyUnicode_CompareWithASCIIString(ptr noundef %13, ptr noundef %14) #4
  %16 = icmp eq i32 %15, -1
  br i1 %16, label %17, label %19

17:                                               ; preds = %12
  %18 = call ptr @PyErr_Occurred() #4
  %.not3 = icmp eq ptr %18, null
  br i1 %.not3, label %19, label %22

19:                                               ; preds = %17, %12
  %20 = sext i32 %15 to i64
  %21 = call ptr @PyLong_FromLong(i64 noundef %20) #4
  br label %22

22:                                               ; preds = %17, %2, %19
  %.0 = phi ptr [ %21, %19 ], [ null, %2 ], [ null, %17 ]
  call void @llvm.lifetime.end.p0(i64 8, ptr nonnull %5) #4
  call void @llvm.lifetime.end.p0(i64 8, ptr nonnull %4) #4
  call void @llvm.lifetime.end.p0(i64 8, ptr nonnull %3) #4
  ret ptr %.0
}